target datalayout = "e-m:e-p270:32:32-p271:32:32-p272:64:64-i64:64-i128:128-f80:128-n8:16:32:64-S128"
target triple = "x86_64-unknown-linux-gnu"

@_ZL17gCanonicalIDCache = internal global ptr null, align 8

; Function Attrs: mustprogress nounwind uwtable
define internal noundef signext i8 @_ZL9U_FAILURE10UErrorCode(i32 noundef %code) #1 {
entry:
  %code.addr = alloca i32, align 4
  store i32 %code, ptr %code.addr, align 4
  %0 = load i32, ptr %code.addr, align 4
  %cmp = icmp sgt i32 %0, 0
  %conv = zext i1 %cmp to i8
  ret i8 %conv
}

; Function Attrs: mustprogress uwtable
define internal void @_ZN6icu_75L20initCanonicalIDCacheER10UErrorCode(ptr noundef nonnull align 4 dereferenceable(4) %status) #0 {
entry:
  %status.addr = alloca ptr, align 8
  store ptr %status, ptr %status.addr, align 8
  %0 = load ptr, ptr %status.addr, align 8
  %call = call ptr @uhash_open_75(ptr noundef @uhash_hashUChars_75, ptr noundef @uhash_compareUChars_75, ptr noundef null, ptr noundef %0)
  store ptr %call, ptr @_ZL17gCanonicalIDCache, align 8
  %1 = load ptr, ptr @_ZL17gCanonicalIDCache, align 8
  %cmp = icmp eq ptr %1, null
  br i1 %cmp, label %if.then, label %if.end

if.then:                                          ; preds = %entry
  %2 = load ptr, ptr %status.addr, align 8
  store i32 7, ptr %2, align 4
  br label %if.end

if.end:                                           ; preds = %if.then, %entry
  %3 = load ptr, ptr %status.addr, align 8
  %4 = load i32, ptr %3, align 4
  %call1 = call noundef signext i8 @_ZL9U_FAILURE10UErrorCode(i32 noundef %4)
  %tobool = icmp ne i8 %call1, 0
  br i1 %tobool, label %if.then2, label %if.end3

if.then2:                                         ; preds = %if.end
  store ptr null, ptr @_ZL17gCanonicalIDCache, align 8
  br label %if.end3

if.end3:                                          ; preds = %if.then2, %if.end
  call void @ucln_i18n_registerCleanup_75(i32 noundef 18, ptr noundef @_ZL16zoneMeta_cleanupv)
  ret void
}