; Function Attrs: mustprogress uwtable
define internal fastcc void @_ZN6icu_75L20initCanonicalIDCacheER10UErrorCode(ptr noundef nonnull align 4 dereferenceable(4) %status) unnamed_addr #0 {
entry:
  %call = tail call ptr @uhash_open_75(ptr noundef nonnull @uhash_hashUChars_75, ptr noundef nonnull @uhash_compareUChars_75, ptr noundef null, ptr noundef nonnull %status)
  store ptr %call, ptr @_ZL17gCanonicalIDCache, align 8
  %cmp = icmp eq ptr %call, null
  br i1 %cmp, label %if.end.thread, label %if.end

if.end.thread:                                    ; preds = %entry
  store i32 7, ptr %status, align 4
  br label %if.then2

if.end:                                           ; preds = %entry
  %.pre = load i32, ptr %status, align 4
  %0 = icmp slt i32 %.pre, 1
  br i1 %0, label %if.end3, label %if.then2

if.then2:                                         ; preds = %if.end.thread, %if.end
  store ptr null, ptr @_ZL17gCanonicalIDCache, align 8
  br label %if.end3

if.end3:                                          ; preds = %if.then2, %if.end
  tail call void @ucln_i18n_registerCleanup_75(i32 noundef 18, ptr noundef nonnull @_ZL16zoneMeta_cleanupv)
  ret void
}